target datalayout = "e-m:e-p270:32:32-p271:32:32-p272:64:64-i64:64-i128:128-f80:128-n8:16:32:64-S128"
target triple = "x86_64-pc-linux-gnu"

; Function Attrs: nounwind uwtable
define internal ptr @Pack3BytesAndSkip1Optimized(ptr noundef %0, ptr noundef %1, ptr noundef %2, i32 noundef %3) #0 {
  %5 = alloca ptr, align 8
  %6 = alloca ptr, align 8
  %7 = alloca ptr, align 8
  %8 = alloca i32, align 4
  store ptr %0, ptr %5, align 8
  store ptr %1, ptr %6, align 8
  store ptr %2, ptr %7, align 8
  store i32 %3, ptr %8, align 4
  %9 = load ptr, ptr %6, align 8
  %10 = getelementptr inbounds i16, ptr %9, i64 0
  %11 = load i16, ptr %10, align 2
  %12 = zext i16 %11 to i32
  %13 = and i32 %12, 255
  %14 = trunc i32 %13 to i8
  %15 = load ptr, ptr %7, align 8
  %16 = getelementptr inbounds i8, ptr %15, i32 1
  store ptr %16, ptr %7, align 8
  store i8 %14, ptr %15, align 1
  %17 = load ptr, ptr %6, align 8
  %18 = getelementptr inbounds i16, ptr %17, i64 1
  %19 = load i16, ptr %18, align 2
  %20 = zext i16 %19 to i32
  %21 = and i32 %20, 255
  %22 = trunc i32 %21 to i8
  %23 = load ptr, ptr %7, align 8
  %24 = getelementptr inbounds i8, ptr %23, i32 1
  store ptr %24, ptr %7, align 8
  store i8 %22, ptr %23, align 1
  %25 = load ptr, ptr %6, align 8
  %26 = getelementptr inbounds i16, ptr %25, i64 2
  %27 = load i16, ptr %26, align 2
  %28 = zext i16 %27 to i32
  %29 = and i32 %28, 255
  %30 = trunc i32 %29 to i8
  %31 = load ptr, ptr %7, align 8
  %32 = getelementptr inbounds i8, ptr %31, i32 1
  store ptr %32, ptr %7, align 8
  store i8 %30, ptr %31, align 1
  %33 = load ptr, ptr %7, align 8
  %34 = getelementptr inbounds i8, ptr %33, i32 1
  store ptr %34, ptr %7, align 8
  %35 = load ptr, ptr %7, align 8
  ret ptr %35
}