; Function Attrs: mustprogress nofree norecurse nosync nounwind willreturn memory(argmem: readwrite) uwtable
define internal nonnull ptr @Pack3BytesAndSkip1Optimized(ptr nocapture readnone %0, ptr nocapture noundef readonly %1, ptr noundef writeonly %2, i32 %3) #3 {
  %5 = load i16, ptr %1, align 2
  %6 = trunc i16 %5 to i8
  %7 = getelementptr inbounds i8, ptr %2, i64 1
  store i8 %6, ptr %2, align 1
  %8 = getelementptr inbounds i8, ptr %1, i64 2
  %9 = load i16, ptr %8, align 2
  %10 = trunc i16 %9 to i8
  %11 = getelementptr inbounds i8, ptr %2, i64 2
  store i8 %10, ptr %7, align 1
  %12 = getelementptr inbounds i8, ptr %1, i64 4
  %13 = load i16, ptr %12, align 2
  %14 = trunc i16 %13 to i8
  store i8 %14, ptr %11, align 1
  %15 = getelementptr inbounds i8, ptr %2, i64 4
  ret ptr %15
}